target datalayout = "e-m:e-p270:32:32-p271:32:32-p272:64:64-i64:64-i128:128-f80:128-n8:16:32:64-S128"
target triple = "x86_64-pc-linux-gnu"

%"class.cv::bioinspired::MagnoRetinaFilter" = type <{ ptr, %"class.cv::bioinspired::BasicRetinaFilter", %"class.std::valarray", %"class.std::valarray", %"class.std::valarray", %"class.std::valarray", %"class.std::valarray", %"class.std::valarray", %"class.std::valarray", %"class.std::valarray", ptr, ptr, float, [4 x i8] }>
%"class.cv::bioinspired::BasicRetinaFilter" = type { %"class.cv::bioinspired::TemplateBuffer", %"class.std::valarray", i32, i32, %"class.std::valarray", %"class.std::valarray", %"class.std::valarray", float, float, float, float, float, float, float, float }
%"class.cv::bioinspired::TemplateBuffer" = type { ptr, %"class.std::valarray", i64, i64, i64, i64, i64 }
%"class.std::valarray" = type { i64, ptr }

@_ZTVN2cv11bioinspired17MagnoRetinaFilterE = hidden unnamed_addr constant { [4 x ptr] } { [4 x ptr] [ptr null, ptr @_ZTIN2cv11bioinspired17MagnoRetinaFilterE, ptr @_ZN2cv11bioinspired17MagnoRetinaFilterD1Ev, ptr @_ZN2cv11bioinspired17MagnoRetinaFilterD0Ev] }, align 8

; Function Attrs: inlinehint mustprogress nounwind uwtable
define linkonce_odr hidden void @_ZNSt19_Array_default_ctorIfLb1EE8_S_do_itEPfS1_(ptr noundef %0, ptr noundef %1) #6 comdat align 2 {
  %3 = alloca ptr, align 8
  %4 = alloca ptr, align 8
  store ptr %0, ptr %3, align 8, !tbaa !30
  store ptr %1, ptr %4, align 8, !tbaa !30
  %5 = load ptr, ptr %3, align 8, !tbaa !30
  %6 = load ptr, ptr %4, align 8, !tbaa !30
  %7 = load ptr, ptr %3, align 8, !tbaa !30
  %8 = ptrtoint ptr %6 to i64
  %9 = ptrtoint ptr %7 to i64
  %10 = sub i64 %8, %9
  %11 = sdiv exact i64 %10, 4
  %12 = mul i64 %11, 4
  call void @llvm.memset.p0.i64(ptr align 4 %5, i8 0, i64 %12, i1 false)
  ret void
}

; Function Attrs: noinline noreturn nounwind uwtable
define linkonce_odr hidden void @__clang_call_terminate(ptr noundef %0) #12 comdat {
  %2 = call ptr @__cxa_begin_catch(ptr %0) #3
  call void @_ZSt9terminatev() #13
  unreachable
}

; Function Attrs: inlinehint mustprogress nounwind uwtable
define linkonce_odr void @_ZSt25__valarray_release_memoryPv(ptr noundef %0) #6 comdat {
  %2 = alloca ptr, align 8
  store ptr %0, ptr %2, align 8, !tbaa !56
  %3 = load ptr, ptr %2, align 8, !tbaa !56
  call void @_ZdlPv(ptr noundef %3) #3
  ret void
}

; Function Attrs: inlinehint mustprogress nounwind uwtable
define linkonce_odr void @_ZSt27__valarray_destroy_elementsIfEvPT_S1_(ptr noundef %0, ptr noundef %1) #6 comdat {
  %3 = alloca ptr, align 8
  %4 = alloca ptr, align 8
  store ptr %0, ptr %3, align 8, !tbaa !30
  store ptr %1, ptr %4, align 8, !tbaa !30
  ret void
}

; Function Attrs: inlinehint mustprogress uwtable
define linkonce_odr void @_ZSt28__valarray_default_constructIfEvPT_S1_(ptr noundef %0, ptr noundef %1) #5 comdat {
  %3 = alloca ptr, align 8
  %4 = alloca ptr, align 8
  store ptr %0, ptr %3, align 8, !tbaa !30
  store ptr %1, ptr %4, align 8, !tbaa !30
  %5 = load ptr, ptr %3, align 8, !tbaa !30
  %6 = load ptr, ptr %4, align 8, !tbaa !30
  call void @_ZNSt19_Array_default_ctorIfLb1EE8_S_do_itEPfS1_(ptr noundef %5, ptr noundef %6)
  ret void
}

; Function Attrs: inlinehint mustprogress uwtable
define linkonce_odr noalias noundef ptr @_ZSt22__valarray_get_storageIfEPT_m(i64 noundef %0) #5 comdat {
  %2 = alloca i64, align 8
  store i64 %0, ptr %2, align 8, !tbaa !24
  %3 = load i64, ptr %2, align 8, !tbaa !24
  %4 = mul i64 %3, 4
  %5 = call noalias noundef nonnull ptr @_Znwm(i64 noundef %4) #15
  ret ptr %5
}

; Function Attrs: inlinehint mustprogress nounwind uwtable
define linkonce_odr hidden void @_ZNSt8valarrayIfED2Ev(ptr noundef nonnull align 8 dereferenceable(16) %0) unnamed_addr #6 comdat align 2 personality ptr @__gxx_personality_v0 {
  %2 = alloca ptr, align 8
  store ptr %0, ptr %2, align 8, !tbaa !23
  %3 = load ptr, ptr %2, align 8
  %4 = getelementptr inbounds nuw %"class.std::valarray", ptr %3, i32 0, i32 1
  %5 = load ptr, ptr %4, align 8, !tbaa !26
  %6 = getelementptr inbounds nuw %"class.std::valarray", ptr %3, i32 0, i32 1
  %7 = load ptr, ptr %6, align 8, !tbaa !26
  %8 = getelementptr inbounds nuw %"class.std::valarray", ptr %3, i32 0, i32 0
  %9 = load i64, ptr %8, align 8, !tbaa !25
  %10 = getelementptr inbounds nuw float, ptr %7, i64 %9
  invoke void @_ZSt27__valarray_destroy_elementsIfEvPT_S1_(ptr noundef %5, ptr noundef %10)
          to label %11 unwind label %15

11:                                               ; preds = %1
  %12 = getelementptr inbounds nuw %"class.std::valarray", ptr %3, i32 0, i32 1
  %13 = load ptr, ptr %12, align 8, !tbaa !26
  invoke void @_ZSt25__valarray_release_memoryPv(ptr noundef %13)
          to label %14 unwind label %15

14:                                               ; preds = %11
  ret void

15:                                               ; preds = %11, %1
  %16 = landingpad { ptr, i32 }
          catch ptr null
  %17 = extractvalue { ptr, i32 } %16, 0
  call void @__clang_call_terminate(ptr %17) #13
  unreachable
}

; Function Attrs: inlinehint mustprogress uwtable
define linkonce_odr hidden void @_ZNSt8valarrayIfEC2Em(ptr noundef nonnull align 8 dereferenceable(16) %0, i64 noundef %1) unnamed_addr #5 comdat align 2 {
  %3 = alloca ptr, align 8
  %4 = alloca i64, align 8
  store ptr %0, ptr %3, align 8, !tbaa !23
  store i64 %1, ptr %4, align 8, !tbaa !24
  %5 = load ptr, ptr %3, align 8
  %6 = getelementptr inbounds nuw %"class.std::valarray", ptr %5, i32 0, i32 0
  %7 = load i64, ptr %4, align 8, !tbaa !24
  store i64 %7, ptr %6, align 8, !tbaa !25
  %8 = getelementptr inbounds nuw %"class.std::valarray", ptr %5, i32 0, i32 1
  %9 = load i64, ptr %4, align 8, !tbaa !24
  %10 = call noalias noundef ptr @_ZSt22__valarray_get_storageIfEPT_m(i64 noundef %9)
  store ptr %10, ptr %8, align 8, !tbaa !26
  %11 = getelementptr inbounds nuw %"class.std::valarray", ptr %5, i32 0, i32 1
  %12 = load ptr, ptr %11, align 8, !tbaa !26
  %13 = getelementptr inbounds nuw %"class.std::valarray", ptr %5, i32 0, i32 1
  %14 = load ptr, ptr %13, align 8, !tbaa !26
  %15 = load i64, ptr %4, align 8, !tbaa !24
  %16 = getelementptr inbounds nuw float, ptr %14, i64 %15
  call void @_ZSt28__valarray_default_constructIfEvPT_S1_(ptr noundef %12, ptr noundef %16)
  ret void
}

; Function Attrs: mustprogress uwtable
define hidden void @_ZN2cv11bioinspired17MagnoRetinaFilterC2Ejj(ptr noundef nonnull align 8 dereferenceable(324) %0, i32 noundef %1, i32 noundef %2) unnamed_addr #4 align 2 personality ptr @__gxx_personality_v0 {
  %4 = alloca ptr, align 8
  %5 = alloca i32, align 4
  %6 = alloca i32, align 4
  %7 = alloca ptr, align 8
  %8 = alloca i32, align 4
  store ptr %0, ptr %4, align 8, !tbaa !3
  store i32 %1, ptr %5, align 4, !tbaa !8
  store i32 %2, ptr %6, align 4, !tbaa !8
  %9 = load ptr, ptr %4, align 8
  %10 = getelementptr inbounds i8, ptr %9, i64 8
  %11 = load i32, ptr %5, align 4, !tbaa !8
  %12 = load i32, ptr %6, align 4, !tbaa !8
  call void @_ZN2cv11bioinspired17BasicRetinaFilterC2Ejjjb(ptr noundef nonnull align 8 dereferenceable(168) %10, i32 noundef %11, i32 noundef %12, i32 noundef 2, i1 noundef zeroext false)
  store ptr getelementptr inbounds inrange(-16, 16) ({ [4 x ptr] }, ptr @_ZTVN2cv11bioinspired17MagnoRetinaFilterE, i32 0, i32 0, i32 2), ptr %9, align 8, !tbaa !10
  %13 = getelementptr inbounds nuw %"class.cv::bioinspired::MagnoRetinaFilter", ptr %9, i32 0, i32 2
  %14 = load i32, ptr %5, align 4, !tbaa !8
  %15 = load i32, ptr %6, align 4, !tbaa !8
  %16 = mul i32 %14, %15
  %17 = zext i32 %16 to i64
  invoke void @_ZNSt8valarrayIfEC2Em(ptr noundef nonnull align 8 dereferenceable(16) %13, i64 noundef %17)
          to label %18 unwind label %68

18:                                               ; preds = %3
  %19 = getelementptr inbounds nuw %"class.cv::bioinspired::MagnoRetinaFilter", ptr %9, i32 0, i32 3
  %20 = load i32, ptr %5, align 4, !tbaa !8
  %21 = load i32, ptr %6, align 4, !tbaa !8
  %22 = mul i32 %20, %21
  %23 = zext i32 %22 to i64
  invoke void @_ZNSt8valarrayIfEC2Em(ptr noundef nonnull align 8 dereferenceable(16) %19, i64 noundef %23)
          to label %24 unwind label %72

24:                                               ; preds = %18
  %25 = getelementptr inbounds nuw %"class.cv::bioinspired::MagnoRetinaFilter", ptr %9, i32 0, i32 4
  %26 = load i32, ptr %5, align 4, !tbaa !8
  %27 = load i32, ptr %6, align 4, !tbaa !8
  %28 = mul i32 %26, %27
  %29 = zext i32 %28 to i64
  invoke void @_ZNSt8valarrayIfEC2Em(ptr noundef nonnull align 8 dereferenceable(16) %25, i64 noundef %29)
          to label %30 unwind label %76

30:                                               ; preds = %24
  %31 = getelementptr inbounds nuw %"class.cv::bioinspired::MagnoRetinaFilter", ptr %9, i32 0, i32 5
  %32 = load i32, ptr %5, align 4, !tbaa !8
  %33 = load i32, ptr %6, align 4, !tbaa !8
  %34 = mul i32 %32, %33
  %35 = zext i32 %34 to i64
  invoke void @_ZNSt8valarrayIfEC2Em(ptr noundef nonnull align 8 dereferenceable(16) %31, i64 noundef %35)
          to label %36 unwind label %80

36:                                               ; preds = %30
  %37 = getelementptr inbounds nuw %"class.cv::bioinspired::MagnoRetinaFilter", ptr %9, i32 0, i32 6
  %38 = load i32, ptr %5, align 4, !tbaa !8
  %39 = load i32, ptr %6, align 4, !tbaa !8
  %40 = mul i32 %38, %39
  %41 = zext i32 %40 to i64
  invoke void @_ZNSt8valarrayIfEC2Em(ptr noundef nonnull align 8 dereferenceable(16) %37, i64 noundef %41)
          to label %42 unwind label %84

42:                                               ; preds = %36
  %43 = getelementptr inbounds nuw %"class.cv::bioinspired::MagnoRetinaFilter", ptr %9, i32 0, i32 7
  %44 = load i32, ptr %5, align 4, !tbaa !8
  %45 = load i32, ptr %6, align 4, !tbaa !8
  %46 = mul i32 %44, %45
  %47 = zext i32 %46 to i64
  invoke void @_ZNSt8valarrayIfEC2Em(ptr noundef nonnull align 8 dereferenceable(16) %43, i64 noundef %47)
          to label %48 unwind label %88

48:                                               ; preds = %42
  %49 = getelementptr inbounds nuw %"class.cv::bioinspired::MagnoRetinaFilter", ptr %9, i32 0, i32 8
  %50 = load i32, ptr %5, align 4, !tbaa !8
  %51 = load i32, ptr %6, align 4, !tbaa !8
  %52 = mul i32 %50, %51
  %53 = zext i32 %52 to i64
  invoke void @_ZNSt8valarrayIfEC2Em(ptr noundef nonnull align 8 dereferenceable(16) %49, i64 noundef %53)
          to label %54 unwind label %92

54:                                               ; preds = %48
  %55 = getelementptr inbounds nuw %"class.cv::bioinspired::MagnoRetinaFilter", ptr %9, i32 0, i32 9
  %56 = load i32, ptr %5, align 4, !tbaa !8
  %57 = load i32, ptr %6, align 4, !tbaa !8
  %58 = mul i32 %56, %57
  %59 = zext i32 %58 to i64
  invoke void @_ZNSt8valarrayIfEC2Em(ptr noundef nonnull align 8 dereferenceable(16) %55, i64 noundef %59)
          to label %60 unwind label %96

60:                                               ; preds = %54
  %61 = getelementptr inbounds i8, ptr %9, i64 8
  %62 = getelementptr inbounds nuw %"class.cv::bioinspired::BasicRetinaFilter", ptr %61, i32 0, i32 0
  %63 = getelementptr inbounds nuw %"class.cv::bioinspired::MagnoRetinaFilter", ptr %9, i32 0, i32 10
  store ptr %62, ptr %63, align 8, !tbaa !12
  %64 = getelementptr inbounds i8, ptr %9, i64 8
  %65 = getelementptr inbounds nuw %"class.cv::bioinspired::BasicRetinaFilter", ptr %64, i32 0, i32 1
  %66 = getelementptr inbounds nuw %"class.cv::bioinspired::MagnoRetinaFilter", ptr %9, i32 0, i32 11
  store ptr %65, ptr %66, align 8, !tbaa !22
  invoke void @_ZN2cv11bioinspired17MagnoRetinaFilter15clearAllBuffersEv(ptr noundef nonnull align 8 dereferenceable(324) %9)
          to label %67 unwind label %100

67:                                               ; preds = %60
  ret void

68:                                               ; preds = %3
  %69 = landingpad { ptr, i32 }
          cleanup
  %70 = extractvalue { ptr, i32 } %69, 0
  store ptr %70, ptr %7, align 8
  %71 = extractvalue { ptr, i32 } %69, 1
  store i32 %71, ptr %8, align 4
  br label %111

72:                                               ; preds = %18
  %73 = landingpad { ptr, i32 }
          cleanup
  %74 = extractvalue { ptr, i32 } %73, 0
  store ptr %74, ptr %7, align 8
  %75 = extractvalue { ptr, i32 } %73, 1
  store i32 %75, ptr %8, align 4
  br label %110

76:                                               ; preds = %24
  %77 = landingpad { ptr, i32 }
          cleanup
  %78 = extractvalue { ptr, i32 } %77, 0
  store ptr %78, ptr %7, align 8
  %79 = extractvalue { ptr, i32 } %77, 1
  store i32 %79, ptr %8, align 4
  br label %109

80:                                               ; preds = %30
  %81 = landingpad { ptr, i32 }
          cleanup
  %82 = extractvalue { ptr, i32 } %81, 0
  store ptr %82, ptr %7, align 8
  %83 = extractvalue { ptr, i32 } %81, 1
  store i32 %83, ptr %8, align 4
  br label %108

84:                                               ; preds = %36
  %85 = landingpad { ptr, i32 }
          cleanup
  %86 = extractvalue { ptr, i32 } %85, 0
  store ptr %86, ptr %7, align 8
  %87 = extractvalue { ptr, i32 } %85, 1
  store i32 %87, ptr %8, align 4
  br label %107

88:                                               ; preds = %42
  %89 = landingpad { ptr, i32 }
          cleanup
  %90 = extractvalue { ptr, i32 } %89, 0
  store ptr %90, ptr %7, align 8
  %91 = extractvalue { ptr, i32 } %89, 1
  store i32 %91, ptr %8, align 4
  br label %106

92:                                               ; preds = %48
  %93 = landingpad { ptr, i32 }
          cleanup
  %94 = extractvalue { ptr, i32 } %93, 0
  store ptr %94, ptr %7, align 8
  %95 = extractvalue { ptr, i32 } %93, 1
  store i32 %95, ptr %8, align 4
  br label %105

96:                                               ; preds = %54
  %97 = landingpad { ptr, i32 }
          cleanup
  %98 = extractvalue { ptr, i32 } %97, 0
  store ptr %98, ptr %7, align 8
  %99 = extractvalue { ptr, i32 } %97, 1
  store i32 %99, ptr %8, align 4
  br label %104

100:                                              ; preds = %60
  %101 = landingpad { ptr, i32 }
          cleanup
  %102 = extractvalue { ptr, i32 } %101, 0
  store ptr %102, ptr %7, align 8
  %103 = extractvalue { ptr, i32 } %101, 1
  store i32 %103, ptr %8, align 4
  call void @_ZNSt8valarrayIfED2Ev(ptr noundef nonnull align 8 dereferenceable(16) %55) #3
  br label %104

104:                                              ; preds = %100, %96
  call void @_ZNSt8valarrayIfED2Ev(ptr noundef nonnull align 8 dereferenceable(16) %49) #3
  br label %105

105:                                              ; preds = %104, %92
  call void @_ZNSt8valarrayIfED2Ev(ptr noundef nonnull align 8 dereferenceable(16) %43) #3
  br label %106

106:                                              ; preds = %105, %88
  call void @_ZNSt8valarrayIfED2Ev(ptr noundef nonnull align 8 dereferenceable(16) %37) #3
  br label %107

107:                                              ; preds = %106, %84
  call void @_ZNSt8valarrayIfED2Ev(ptr noundef nonnull align 8 dereferenceable(16) %31) #3
  br label %108

108:                                              ; preds = %107, %80
  call void @_ZNSt8valarrayIfED2Ev(ptr noundef nonnull align 8 dereferenceable(16) %25) #3
  br label %109

109:                                              ; preds = %108, %76
  call void @_ZNSt8valarrayIfED2Ev(ptr noundef nonnull align 8 dereferenceable(16) %19) #3
  br label %110

110:                                              ; preds = %109, %72
  call void @_ZNSt8valarrayIfED2Ev(ptr noundef nonnull align 8 dereferenceable(16) %13) #3
  br label %111

111:                                              ; preds = %110, %68
  %112 = getelementptr inbounds i8, ptr %9, i64 8
  call void @_ZN2cv11bioinspired17BasicRetinaFilterD2Ev(ptr noundef nonnull align 8 dereferenceable(168) %112) #3
  br label %113

113:                                              ; preds = %111
  %114 = load ptr, ptr %7, align 8
  %115 = load i32, ptr %8, align 4
  %116 = insertvalue { ptr, i32 } poison, ptr %114, 0
  %117 = insertvalue { ptr, i32 } %116, i32 %115, 1
  resume { ptr, i32 } %117
}