; Function Attrs: mustprogress uwtable
define hidden void @_ZN2cv11bioinspired17MagnoRetinaFilterC2Ejj(ptr noundef nonnull align 8 dereferenceable(324) %0, i32 noundef %1, i32 noundef %2) unnamed_addr #3 align 2 personality ptr @__gxx_personality_v0 {
  %4 = getelementptr inbounds nuw i8, ptr %0, i64 8
  tail call void @_ZN2cv11bioinspired17BasicRetinaFilterC2Ejjjb(ptr noundef nonnull align 8 dereferenceable(168) %4, i32 noundef %1, i32 noundef %2, i32 noundef 2, i1 noundef zeroext false)
  store ptr getelementptr inbounds nuw inrange(-16, 16) (i8, ptr @_ZTVN2cv11bioinspired17MagnoRetinaFilterE, i64 16), ptr %0, align 8, !tbaa !3
  %5 = getelementptr inbounds nuw i8, ptr %0, i64 176
  %6 = mul i32 %2, %1
  %7 = zext i32 %6 to i64
  store i64 %7, ptr %5, align 8, !tbaa !6
  %8 = getelementptr inbounds nuw i8, ptr %0, i64 184
  %9 = shl nuw nsw i64 %7, 2
  %10 = invoke noalias noundef nonnull ptr @_Znwm(i64 noundef %9) #13
          to label %11 unwind label %43

11:                                               ; preds = %3
  store ptr %10, ptr %8, align 8, !tbaa !12
  tail call void @llvm.memset.p0.i64(ptr nonnull align 4 %10, i8 0, i64 %9, i1 false)
  %12 = getelementptr inbounds nuw i8, ptr %0, i64 192
  store i64 %7, ptr %12, align 8, !tbaa !6
  %13 = getelementptr inbounds nuw i8, ptr %0, i64 200
  %14 = invoke noalias noundef nonnull ptr @_Znwm(i64 noundef %9) #13
          to label %15 unwind label %45

15:                                               ; preds = %11
  store ptr %14, ptr %13, align 8, !tbaa !12
  tail call void @llvm.memset.p0.i64(ptr nonnull align 4 %14, i8 0, i64 %9, i1 false)
  %16 = getelementptr inbounds nuw i8, ptr %0, i64 208
  store i64 %7, ptr %16, align 8, !tbaa !6
  %17 = getelementptr inbounds nuw i8, ptr %0, i64 216
  %18 = invoke noalias noundef nonnull ptr @_Znwm(i64 noundef %9) #13
          to label %19 unwind label %47

19:                                               ; preds = %15
  store ptr %18, ptr %17, align 8, !tbaa !12
  tail call void @llvm.memset.p0.i64(ptr nonnull align 4 %18, i8 0, i64 %9, i1 false)
  %20 = getelementptr inbounds nuw i8, ptr %0, i64 224
  store i64 %7, ptr %20, align 8, !tbaa !6
  %21 = getelementptr inbounds nuw i8, ptr %0, i64 232
  %22 = invoke noalias noundef nonnull ptr @_Znwm(i64 noundef %9) #13
          to label %23 unwind label %49

23:                                               ; preds = %19
  store ptr %22, ptr %21, align 8, !tbaa !12
  tail call void @llvm.memset.p0.i64(ptr nonnull align 4 %22, i8 0, i64 %9, i1 false)
  %24 = getelementptr inbounds nuw i8, ptr %0, i64 240
  store i64 %7, ptr %24, align 8, !tbaa !6
  %25 = getelementptr inbounds nuw i8, ptr %0, i64 248
  %26 = invoke noalias noundef nonnull ptr @_Znwm(i64 noundef %9) #13
          to label %27 unwind label %51

27:                                               ; preds = %23
  store ptr %26, ptr %25, align 8, !tbaa !12
  tail call void @llvm.memset.p0.i64(ptr nonnull align 4 %26, i8 0, i64 %9, i1 false)
  %28 = getelementptr inbounds nuw i8, ptr %0, i64 256
  store i64 %7, ptr %28, align 8, !tbaa !6
  %29 = getelementptr inbounds nuw i8, ptr %0, i64 264
  %30 = invoke noalias noundef nonnull ptr @_Znwm(i64 noundef %9) #13
          to label %31 unwind label %53

31:                                               ; preds = %27
  store ptr %30, ptr %29, align 8, !tbaa !12
  tail call void @llvm.memset.p0.i64(ptr nonnull align 4 %30, i8 0, i64 %9, i1 false)
  %32 = getelementptr inbounds nuw i8, ptr %0, i64 272
  store i64 %7, ptr %32, align 8, !tbaa !6
  %33 = getelementptr inbounds nuw i8, ptr %0, i64 280
  %34 = invoke noalias noundef nonnull ptr @_Znwm(i64 noundef %9) #13
          to label %35 unwind label %55

35:                                               ; preds = %31
  store ptr %34, ptr %33, align 8, !tbaa !12
  tail call void @llvm.memset.p0.i64(ptr nonnull align 4 %34, i8 0, i64 %9, i1 false)
  %36 = getelementptr inbounds nuw i8, ptr %0, i64 288
  store i64 %7, ptr %36, align 8, !tbaa !6
  %37 = invoke noalias noundef nonnull ptr @_Znwm(i64 noundef %9) #13
          to label %38 unwind label %57

38:                                               ; preds = %35
  %39 = getelementptr inbounds nuw i8, ptr %0, i64 296
  store ptr %37, ptr %39, align 8, !tbaa !12
  tail call void @llvm.memset.p0.i64(ptr nonnull align 4 %37, i8 0, i64 %9, i1 false)
  %40 = getelementptr inbounds nuw i8, ptr %0, i64 304
  store ptr %4, ptr %40, align 8, !tbaa !13
  %41 = getelementptr inbounds nuw i8, ptr %0, i64 72
  %42 = getelementptr inbounds nuw i8, ptr %0, i64 312
  store ptr %41, ptr %42, align 8, !tbaa !21
  tail call void @_ZN2cv11bioinspired17MagnoRetinaFilter15clearAllBuffersEv(ptr noundef nonnull align 8 dereferenceable(324) %0)
  ret void

43:                                               ; preds = %3
  %44 = landingpad { ptr, i32 }
          cleanup
  br label %72

45:                                               ; preds = %11
  %46 = landingpad { ptr, i32 }
          cleanup
  br label %70

47:                                               ; preds = %15
  %48 = landingpad { ptr, i32 }
          cleanup
  br label %68

49:                                               ; preds = %19
  %50 = landingpad { ptr, i32 }
          cleanup
  br label %66

51:                                               ; preds = %23
  %52 = landingpad { ptr, i32 }
          cleanup
  br label %64

53:                                               ; preds = %27
  %54 = landingpad { ptr, i32 }
          cleanup
  br label %62

55:                                               ; preds = %31
  %56 = landingpad { ptr, i32 }
          cleanup
  br label %60

57:                                               ; preds = %35
  %58 = landingpad { ptr, i32 }
          cleanup
  %59 = load ptr, ptr %33, align 8, !tbaa !12
  tail call void @_ZdlPv(ptr noundef %59) #14
  br label %60

60:                                               ; preds = %57, %55
  %.pn.pn = phi { ptr, i32 } [ %58, %57 ], [ %56, %55 ]
  %61 = load ptr, ptr %29, align 8, !tbaa !12
  tail call void @_ZdlPv(ptr noundef %61) #14
  br label %62

62:                                               ; preds = %60, %53
  %.pn.pn.pn = phi { ptr, i32 } [ %.pn.pn, %60 ], [ %54, %53 ]
  %63 = load ptr, ptr %25, align 8, !tbaa !12
  tail call void @_ZdlPv(ptr noundef %63) #14
  br label %64

64:                                               ; preds = %62, %51
  %.pn.pn.pn.pn = phi { ptr, i32 } [ %.pn.pn.pn, %62 ], [ %52, %51 ]
  %65 = load ptr, ptr %21, align 8, !tbaa !12
  tail call void @_ZdlPv(ptr noundef %65) #14
  br label %66

66:                                               ; preds = %64, %49
  %.pn.pn.pn.pn.pn = phi { ptr, i32 } [ %.pn.pn.pn.pn, %64 ], [ %50, %49 ]
  %67 = load ptr, ptr %17, align 8, !tbaa !12
  tail call void @_ZdlPv(ptr noundef %67) #14
  br label %68

68:                                               ; preds = %66, %47
  %.pn.pn.pn.pn.pn.pn = phi { ptr, i32 } [ %.pn.pn.pn.pn.pn, %66 ], [ %48, %47 ]
  %69 = load ptr, ptr %13, align 8, !tbaa !12
  tail call void @_ZdlPv(ptr noundef %69) #14
  br label %70

70:                                               ; preds = %68, %45
  %.pn.pn.pn.pn.pn.pn.pn = phi { ptr, i32 } [ %.pn.pn.pn.pn.pn.pn, %68 ], [ %46, %45 ]
  %71 = load ptr, ptr %8, align 8, !tbaa !12
  tail call void @_ZdlPv(ptr noundef %71) #14
  br label %72

72:                                               ; preds = %70, %43
  %.pn.pn.pn.pn.pn.pn.pn.pn = phi { ptr, i32 } [ %.pn.pn.pn.pn.pn.pn.pn, %70 ], [ %44, %43 ]
  tail call void @_ZN2cv11bioinspired17BasicRetinaFilterD2Ev(ptr noundef nonnull align 8 dereferenceable(168) %4) #14
  resume { ptr, i32 } %.pn.pn.pn.pn.pn.pn.pn.pn
}